
tests/sal/build/fpga/nist1.elf:     file format elf32-littleriscv


Disassembly of section .text:

00000000 <reset>:
   0:	50b02573          	csrr	a0,hartid
   4:	02050263          	beqz	a0,28 <init>
   8:	20000617          	auipc	a2,0x20000
   c:	ff860613          	addi	a2,a2,-8 # 20000000 <DATA_START_ADDR>
  10:	00351513          	slli	a0,a0,0x3
  14:	00a60633          	add	a2,a2,a0

00000018 <wait>:
  18:	00062503          	lw	a0,0(a2)
  1c:	fe050ee3          	beqz	a0,18 <wait>
  20:	00462583          	lw	a1,4(a2)
  24:	0180006f          	j	3c <startup>

00000028 <init>:
  28:	20000597          	auipc	a1,0x20000
  2c:	fd858593          	addi	a1,a1,-40 # 20000000 <DATA_START_ADDR>
  30:	00000517          	auipc	a0,0x0
  34:	1ac50513          	addi	a0,a0,428 # 1dc <main>
  38:	0045a583          	lw	a1,4(a1)

0000003c <startup>:
  3c:	00058113          	mv	sp,a1
  40:	000500e7          	jalr	a0
  44:	50b025f3          	csrr	a1,hartid
  48:	00058e63          	beqz	a1,64 <done>
  4c:	20000617          	auipc	a2,0x20000
  50:	fb460613          	addi	a2,a2,-76 # 20000000 <DATA_START_ADDR>
  54:	00359593          	slli	a1,a1,0x3
  58:	00b60633          	add	a2,a2,a1
  5c:	00062023          	sw	zero,0(a2)
  60:	fa1ff06f          	j	0 <reset>

00000064 <done>:
  64:	00051463          	bnez	a0,6c <done+0x8>
  68:	00f50513          	addi	a0,a0,15
  6c:	51e51073          	csrw	tohost,a0
  70:	0000006f          	j	70 <done+0xc>

00000074 <delay_until>:
  74:	0000700b          	custom0	zero,zero,zero,0
  78:	00008067          	ret

0000007c <func>:
  7c:	200007b7          	lui	a5,0x20000
  80:	02078793          	addi	a5,a5,32 # 20000020 <DATA_START_ADDR+0x20>
  84:	04800713          	li	a4,72
  88:	400006b7          	lui	a3,0x40000
  8c:	00e68023          	sb	a4,0(a3) # 40000000 <count+0x1fffffb4>
  90:	00178793          	addi	a5,a5,1
  94:	0007c703          	lbu	a4,0(a5)
  98:	fe071ae3          	bnez	a4,8c <func+0x10>
  9c:	00000513          	li	a0,0
  a0:	00008067          	ret

000000a4 <initializer>:
  a4:	200007b7          	lui	a5,0x20000
  a8:	04c7a503          	lw	a0,76(a5) # 2000004c <count>
  ac:	ff010113          	addi	sp,sp,-16
  b0:	00112623          	sw	ra,12(sp)
  b4:	ff650513          	addi	a0,a0,-10
  b8:	00a03533          	snez	a0,a0
  bc:	fb9ff0ef          	jal	74 <delay_until>
  c0:	200006b7          	lui	a3,0x20000
  c4:	200007b7          	lui	a5,0x20000
  c8:	03468713          	addi	a4,a3,52 # 20000034 <bss_start>
  cc:	02c78793          	addi	a5,a5,44 # 2000002c <DATA_START_ADDR+0x2c>
  d0:	00f72223          	sw	a5,4(a4)
  d4:	00c12083          	lw	ra,12(sp)
  d8:	00a00793          	li	a5,10
  dc:	02f6aa23          	sw	a5,52(a3)
  e0:	07c00793          	li	a5,124
  e4:	00f72423          	sw	a5,8(a4)
  e8:	01010113          	addi	sp,sp,16
  ec:	00008067          	ret

000000f0 <set>:
  f0:	200007b7          	lui	a5,0x20000
  f4:	0387a703          	lw	a4,56(a5) # 20000038 <bss_start+0x4>
  f8:	00a00693          	li	a3,10
  fc:	200007b7          	lui	a5,0x20000
 100:	04d7a623          	sw	a3,76(a5) # 2000004c <count>
 104:	00074783          	lbu	a5,0(a4)
 108:	400006b7          	lui	a3,0x40000
 10c:	00078a63          	beqz	a5,120 <set+0x30>
 110:	00f68023          	sb	a5,0(a3) # 40000000 <count+0x1fffffb4>
 114:	00170713          	addi	a4,a4,1
 118:	00074783          	lbu	a5,0(a4)
 11c:	fe079ae3          	bnez	a5,110 <set+0x20>
 120:	00008067          	ret

00000124 <hwthread_start>:
 124:	200007b7          	lui	a5,0x20000
 128:	00351513          	slli	a0,a0,0x3
 12c:	00078793          	mv	a5,a5
 130:	00f50533          	add	a0,a0,a5
 134:	00b52023          	sw	a1,0(a0)
 138:	00060463          	beqz	a2,140 <hwthread_start+0x1c>
 13c:	00c52223          	sw	a2,4(a0)
 140:	00008067          	ret

00000144 <hwthread_done>:
 144:	200007b7          	lui	a5,0x20000
 148:	00078793          	mv	a5,a5
 14c:	00351513          	slli	a0,a0,0x3
 150:	00f50533          	add	a0,a0,a5
 154:	00052503          	lw	a0,0(a0)
 158:	00153513          	seqz	a0,a0
 15c:	00008067          	ret

00000160 <itoa_hex>:
 160:	20000737          	lui	a4,0x20000
 164:	20000637          	lui	a2,0x20000
 168:	04770713          	addi	a4,a4,71 # 20000047 <qbuf+0x7>
 16c:	03f60613          	addi	a2,a2,63 # 2000003f <bss_start+0xb>
 170:	03900593          	li	a1,57
 174:	0140006f          	j	188 <itoa_hex+0x28>
 178:	00d70023          	sb	a3,0(a4)
 17c:	fff70713          	addi	a4,a4,-1
 180:	00455513          	srli	a0,a0,0x4
 184:	02c70263          	beq	a4,a2,1a8 <itoa_hex+0x48>
 188:	00f57793          	andi	a5,a0,15
 18c:	03078693          	addi	a3,a5,48 # 20000030 <DATA_START_ADDR+0x30>
 190:	03778793          	addi	a5,a5,55
 194:	fed5f2e3          	bleu	a3,a1,178 <itoa_hex+0x18>
 198:	00f70023          	sb	a5,0(a4)
 19c:	fff70713          	addi	a4,a4,-1
 1a0:	00455513          	srli	a0,a0,0x4
 1a4:	fec712e3          	bne	a4,a2,188 <itoa_hex+0x28>
 1a8:	20000537          	lui	a0,0x20000
 1ac:	04050793          	addi	a5,a0,64 # 20000040 <qbuf>
 1b0:	00078423          	sb	zero,8(a5)
 1b4:	04050513          	addi	a0,a0,64
 1b8:	00008067          	ret

000001bc <emulator_outputstr>:
 1bc:	00054783          	lbu	a5,0(a0)
 1c0:	40000737          	lui	a4,0x40000
 1c4:	00078a63          	beqz	a5,1d8 <emulator_outputstr+0x1c>
 1c8:	00f70023          	sb	a5,0(a4) # 40000000 <count+0x1fffffb4>
 1cc:	00150513          	addi	a0,a0,1
 1d0:	00054783          	lbu	a5,0(a0)
 1d4:	fe079ae3          	bnez	a5,1c8 <emulator_outputstr+0xc>
 1d8:	00008067          	ret

000001dc <main>:
 1dc:	200007b7          	lui	a5,0x20000
 1e0:	013005b7          	lui	a1,0x1300
 1e4:	00500613          	li	a2,5
 1e8:	00078793          	mv	a5,a5
 1ec:	0a400813          	li	a6,164
 1f0:	0f000513          	li	a0,240
 1f4:	fff58593          	addi	a1,a1,-1 # 12fffff <main+0x12ffe23>
 1f8:	00000893          	li	a7,0
 1fc:	0107a423          	sw	a6,8(a5) # 20000008 <DATA_START_ADDR+0x8>
 200:	00a7a823          	sw	a0,16(a5)
 204:	50359773          	csrrw	a4,badvaddr,a1
 208:	50489073          	csrw	ptbr,a7
 20c:	0087a683          	lw	a3,8(a5)
 210:	0107a703          	lw	a4,16(a5)
 214:	fe071ce3          	bnez	a4,20c <main+0x30>
 218:	fe069ae3          	bnez	a3,20c <main+0x30>
 21c:	fff60613          	addi	a2,a2,-1
 220:	fc061ee3          	bnez	a2,1fc <main+0x20>
 224:	200007b7          	lui	a5,0x20000
 228:	20000737          	lui	a4,0x20000
 22c:	200005b7          	lui	a1,0x20000
 230:	04c7a683          	lw	a3,76(a5) # 2000004c <count>
 234:	04770713          	addi	a4,a4,71 # 20000047 <qbuf+0x7>
 238:	03f58593          	addi	a1,a1,63 # 2000003f <bss_start+0xb>
 23c:	03900513          	li	a0,57
 240:	0140006f          	j	254 <main+0x78>
 244:	00c70023          	sb	a2,0(a4)
 248:	fff70713          	addi	a4,a4,-1
 24c:	0046d693          	srli	a3,a3,0x4
 250:	02b70263          	beq	a4,a1,274 <main+0x98>
 254:	00f6f793          	andi	a5,a3,15
 258:	03078613          	addi	a2,a5,48
 25c:	03778793          	addi	a5,a5,55
 260:	fec572e3          	bleu	a2,a0,244 <main+0x68>
 264:	00f70023          	sb	a5,0(a4)
 268:	fff70713          	addi	a4,a4,-1
 26c:	0046d693          	srli	a3,a3,0x4
 270:	feb712e3          	bne	a4,a1,254 <main+0x78>
 274:	200007b7          	lui	a5,0x20000
 278:	0407c703          	lbu	a4,64(a5) # 20000040 <qbuf>
 27c:	04078693          	addi	a3,a5,64
 280:	00068423          	sb	zero,8(a3)
 284:	04078793          	addi	a5,a5,64
 288:	400006b7          	lui	a3,0x40000
 28c:	00070a63          	beqz	a4,2a0 <main+0xc4>
 290:	00e68023          	sb	a4,0(a3) # 40000000 <count+0x1fffffb4>
 294:	00178793          	addi	a5,a5,1
 298:	0007c703          	lbu	a4,0(a5)
 29c:	fe071ae3          	bnez	a4,290 <main+0xb4>
 2a0:	cc41e7f3          	csrrs	a5,uarch4,3
 2a4:	00100513          	li	a0,1
 2a8:	00008067          	ret
